target datalayout = "e-m:e-p270:32:32-p271:32:32-p272:64:64-i64:64-i128:128-f80:128-n8:16:32:64-S128"
target triple = "x86_64-pc-linux-gnu"

%"class.google::protobuf::internal::LogMessage" = type { i32, ptr, i32, %"class.std::__cxx11::basic_string" }
%"class.std::__cxx11::basic_string" = type { %"struct.std::__cxx11::basic_string<char>::_Alloc_hider", i64, %union.anon }
%"struct.std::__cxx11::basic_string<char>::_Alloc_hider" = type { ptr }
%union.anon = type { i64, [8 x i8] }
%"class.google::protobuf::internal::LogFinisher" = type { i8 }
%"class.google::protobuf::strings::UncheckedArrayByteSink" = type { %"class.google::protobuf::strings::ByteSink", ptr }
%"class.google::protobuf::strings::ByteSink" = type { ptr }

@.str = private unnamed_addr constant [149 x i8] c"generated/home/dtcxzyw/WorkSpace/Projects/compilers/llvm-opt-benchmark/bench/opencv/opencv/3rdparty/protobuf/src/google/protobuf/stubs/bytestream.cc\00", align 1
@.str.2 = private unnamed_addr constant [55 x i8] c"CHECK failed: !(dest_ <= data && data < (dest_ + n)): \00", align 1
@.str.3 = private unnamed_addr constant [38 x i8] c"Append() data[] overlaps with dest_[]\00", align 1

; Function Attrs: mustprogress uwtable
define hidden void @_ZN6google8protobuf7strings22UncheckedArrayByteSink6AppendEPKcm(ptr noundef nonnull align 8 dereferenceable(16) %0, ptr noundef %1, i64 noundef %2) unnamed_addr #4 align 2 personality ptr @__gxx_personality_v0 {
  %4 = alloca ptr, align 8
  %5 = alloca ptr, align 8
  %6 = alloca i64, align 8
  %7 = alloca %"class.google::protobuf::internal::LogMessage", align 8
  %8 = alloca i1, align 1
  %9 = alloca i1, align 1
  %10 = alloca ptr, align 8
  %11 = alloca i32, align 4
  %12 = alloca %"class.google::protobuf::internal::LogFinisher", align 1
  store ptr %0, ptr %4, align 8, !tbaa !24
  store ptr %1, ptr %5, align 8, !tbaa !26
  store i64 %2, ptr %6, align 8, !tbaa !10
  %13 = load ptr, ptr %4, align 8
  %14 = load ptr, ptr %5, align 8, !tbaa !26
  %15 = getelementptr inbounds nuw %"class.google::protobuf::strings::UncheckedArrayByteSink", ptr %13, i32 0, i32 1
  %16 = load ptr, ptr %15, align 8, !tbaa !27
  %17 = icmp ne ptr %14, %16
  br i1 %17, label %18, label %66

18:                                               ; preds = %3
  br label %19

19:                                               ; preds = %45, %18
  br i1 false, label %20, label %61

20:                                               ; preds = %19
  %21 = getelementptr inbounds nuw %"class.google::protobuf::strings::UncheckedArrayByteSink", ptr %13, i32 0, i32 1
  %22 = load ptr, ptr %21, align 8, !tbaa !27
  %23 = load ptr, ptr %5, align 8, !tbaa !26
  %24 = icmp ule ptr %22, %23
  store i1 false, ptr %8, align 1
  store i1 false, ptr %9, align 1
  call void @llvm.lifetime.start.p0(i64 1, ptr %12) #3
  br i1 %24, label %25, label %32

25:                                               ; preds = %20
  %26 = load ptr, ptr %5, align 8, !tbaa !26
  %27 = getelementptr inbounds nuw %"class.google::protobuf::strings::UncheckedArrayByteSink", ptr %13, i32 0, i32 1
  %28 = load ptr, ptr %27, align 8, !tbaa !27
  %29 = load i64, ptr %6, align 8, !tbaa !10
  %30 = getelementptr inbounds nuw i8, ptr %28, i64 %29
  %31 = icmp ult ptr %26, %30
  br i1 %31, label %33, label %32

32:                                               ; preds = %25, %20
  br label %39

33:                                               ; preds = %25
  call void @llvm.lifetime.start.p0(i64 56, ptr %7) #3
  store i1 true, ptr %8, align 1
  call void @_ZN6google8protobuf8internal10LogMessageC1ENS0_8LogLevelEPKci(ptr noundef nonnull align 8 dereferenceable(56) %7, i32 noundef 3, ptr noundef @.str, i32 noundef 61)
  store i1 true, ptr %9, align 1
  %34 = invoke noundef nonnull align 8 dereferenceable(56) ptr @_ZN6google8protobuf8internal10LogMessagelsEPKc(ptr noundef nonnull align 8 dereferenceable(56) %7, ptr noundef @.str.2)
          to label %35 unwind label %46

35:                                               ; preds = %33
  %36 = invoke noundef nonnull align 8 dereferenceable(56) ptr @_ZN6google8protobuf8internal10LogMessagelsEPKc(ptr noundef nonnull align 8 dereferenceable(56) %34, ptr noundef @.str.3)
          to label %37 unwind label %46

37:                                               ; preds = %35
  invoke void @_ZN6google8protobuf8internal11LogFinisheraSERNS1_10LogMessageE(ptr noundef nonnull align 1 dereferenceable(1) %12, ptr noundef nonnull align 8 dereferenceable(56) %36)
          to label %38 unwind label %50

38:                                               ; preds = %37
  br label %39

39:                                               ; preds = %38, %32
  call void @llvm.lifetime.end.p0(i64 1, ptr %12) #3
  %40 = load i1, ptr %9, align 1
  br i1 %40, label %41, label %42

41:                                               ; preds = %39
  call void @_ZN6google8protobuf8internal10LogMessageD1Ev(ptr noundef nonnull align 8 dereferenceable(56) %7) #3
  br label %42

42:                                               ; preds = %41, %39
  %43 = load i1, ptr %8, align 1
  br i1 %43, label %44, label %45

44:                                               ; preds = %42
  call void @llvm.lifetime.end.p0(i64 56, ptr %7) #3
  br label %45

45:                                               ; preds = %44, %42
  br label %19, !llvm.loop !30

46:                                               ; preds = %35, %33
  %47 = landingpad { ptr, i32 }
          cleanup
  %48 = extractvalue { ptr, i32 } %47, 0
  store ptr %48, ptr %10, align 8
  %49 = extractvalue { ptr, i32 } %47, 1
  store i32 %49, ptr %11, align 4
  br label %54

50:                                               ; preds = %37
  %51 = landingpad { ptr, i32 }
          cleanup
  %52 = extractvalue { ptr, i32 } %51, 0
  store ptr %52, ptr %10, align 8
  %53 = extractvalue { ptr, i32 } %51, 1
  store i32 %53, ptr %11, align 4
  call void @llvm.lifetime.end.p0(i64 1, ptr %12) #3
  br label %54

54:                                               ; preds = %50, %46
  %55 = load i1, ptr %9, align 1
  br i1 %55, label %56, label %57

56:                                               ; preds = %54
  call void @_ZN6google8protobuf8internal10LogMessageD1Ev(ptr noundef nonnull align 8 dereferenceable(56) %7) #3
  br label %57

57:                                               ; preds = %56, %54
  %58 = load i1, ptr %8, align 1
  br i1 %58, label %59, label %60

59:                                               ; preds = %57
  call void @llvm.lifetime.end.p0(i64 56, ptr %7) #3
  br label %60

60:                                               ; preds = %59, %57
  br label %71

61:                                               ; preds = %19
  %62 = getelementptr inbounds nuw %"class.google::protobuf::strings::UncheckedArrayByteSink", ptr %13, i32 0, i32 1
  %63 = load ptr, ptr %62, align 8, !tbaa !27
  %64 = load ptr, ptr %5, align 8, !tbaa !26
  %65 = load i64, ptr %6, align 8, !tbaa !10
  call void @llvm.memcpy.p0.p0.i64(ptr align 1 %63, ptr align 1 %64, i64 %65, i1 false)
  br label %66

66:                                               ; preds = %61, %3
  %67 = load i64, ptr %6, align 8, !tbaa !10
  %68 = getelementptr inbounds nuw %"class.google::protobuf::strings::UncheckedArrayByteSink", ptr %13, i32 0, i32 1
  %69 = load ptr, ptr %68, align 8, !tbaa !27
  %70 = getelementptr inbounds nuw i8, ptr %69, i64 %67
  store ptr %70, ptr %68, align 8, !tbaa !27
  ret void

71:                                               ; preds = %60
  %72 = load ptr, ptr %10, align 8
  %73 = load i32, ptr %11, align 4
  %74 = insertvalue { ptr, i32 } poison, ptr %72, 0
  %75 = insertvalue { ptr, i32 } %74, i32 %73, 1
  resume { ptr, i32 } %75
}